; Function Attrs: mustprogress uwtable
define void @_ZNK6icu_778numparse4impl21RequireAffixValidator8toStringEv(ptr dead_on_unwind noalias nonnull writable sret(%"class.icu_77::UnicodeString") align 8 initializes((0, 10)) %0, ptr nonnull readnone align 8 captures(none) %1) unnamed_addr #1 align 2 personality ptr @__gxx_personality_v0 {
  store ptr getelementptr inbounds nuw inrange(-16, 88) (i8, ptr @_ZTVN6icu_7713UnicodeStringE, i64 16), ptr %0, align 8, !tbaa !16
  %3 = getelementptr inbounds nuw i8, ptr %0, i64 8
  store i16 2, ptr %3, align 8, !tbaa !3
  %4 = invoke noundef nonnull align 8 dereferenceable(64) ptr @_ZN6icu_7713UnicodeString8doAppendESt17basic_string_viewIDsSt11char_traitsIDsEE(ptr noundef nonnull align 8 dereferenceable(64) %0, i64 10, ptr nonnull @.str)
          to label %_ZN6icu_7713UnicodeStringC2IA11_DsvEERKT_.exit unwind label %5

5:                                                ; preds = %2
  %6 = landingpad { ptr, i32 }
          cleanup
  tail call void @_ZN6icu_7711ReplaceableD2Ev(ptr noundef nonnull align 8 dereferenceable(64) %0) #7
  resume { ptr, i32 } %6

_ZN6icu_7713UnicodeStringC2IA11_DsvEERKT_.exit:   ; preds = %2
  ret void
}